; Function Attrs: mustprogress uwtable
define internal void @_ZN12_GLOBAL__N_18mam_impl10push_scopeEv(ptr noundef nonnull align 8 dereferenceable(98976) %this) unnamed_addr #3 align 2 {
entry:
  %m_trail_stack = getelementptr inbounds i8, ptr %this, i64 32
  %m_region.i = getelementptr inbounds i8, ptr %this, i64 48
  tail call void @_ZN6region10push_scopeEv(ptr noundef nonnull align 8 dereferenceable(40) %m_region.i)
  %m_scopes.i = getelementptr inbounds i8, ptr %this, i64 40
  %0 = load ptr, ptr %m_trail_stack, align 8
  %cmp.i.i = icmp eq ptr %0, null
  br i1 %cmp.i.i, label %_ZNK6vectorIP5trailLb0EjE4sizeEv.exit.i, label %if.end.i.i

if.end.i.i:                                       ; preds = %entry
  %arrayidx.i.i = getelementptr inbounds i8, ptr %0, i64 -4
  %1 = load i32, ptr %arrayidx.i.i, align 4
  br label %_ZNK6vectorIP5trailLb0EjE4sizeEv.exit.i

_ZNK6vectorIP5trailLb0EjE4sizeEv.exit.i:          ; preds = %if.end.i.i, %entry
  %retval.0.i.i = phi i32 [ %1, %if.end.i.i ], [ 0, %entry ]
  %2 = load ptr, ptr %m_scopes.i, align 8
  %cmp.i1.i = icmp eq ptr %2, null
  br i1 %cmp.i1.i, label %if.then.i.i, label %lor.lhs.false.i.i

lor.lhs.false.i.i:                                ; preds = %_ZNK6vectorIP5trailLb0EjE4sizeEv.exit.i
  %arrayidx.i2.i = getelementptr inbounds i8, ptr %2, i64 -4
  %3 = load i32, ptr %arrayidx.i2.i, align 4
  %arrayidx4.i.i = getelementptr inbounds i8, ptr %2, i64 -8
  %4 = load i32, ptr %arrayidx4.i.i, align 4
  %cmp5.i.i = icmp eq i32 %3, %4
  br i1 %cmp5.i.i, label %if.then.i.i, label %_ZN11trail_stack10push_scopeEv.exit

if.then.i.i:                                      ; preds = %lor.lhs.false.i.i, %_ZNK6vectorIP5trailLb0EjE4sizeEv.exit.i
  tail call void @_ZN6vectorIjLb0EjE13expand_vectorEv(ptr noundef nonnull align 8 dereferenceable(8) %m_scopes.i)
  %.pre.i.i = load ptr, ptr %m_scopes.i, align 8
  %arrayidx8.phi.trans.insert.i.i = getelementptr inbounds i8, ptr %.pre.i.i, i64 -4
  %.pre1.i.i = load i32, ptr %arrayidx8.phi.trans.insert.i.i, align 4
  br label %_ZN11trail_stack10push_scopeEv.exit

_ZN11trail_stack10push_scopeEv.exit:              ; preds = %lor.lhs.false.i.i, %if.then.i.i
  %5 = phi i32 [ %.pre1.i.i, %if.then.i.i ], [ %3, %lor.lhs.false.i.i ]
  %6 = phi ptr [ %.pre.i.i, %if.then.i.i ], [ %2, %lor.lhs.false.i.i ]
  %idx.ext.i.i = zext i32 %5 to i64
  %add.ptr.i.i = getelementptr inbounds i32, ptr %6, i64 %idx.ext.i.i
  store i32 %retval.0.i.i, ptr %add.ptr.i.i, align 4
  %7 = load ptr, ptr %m_scopes.i, align 8
  %arrayidx10.i.i = getelementptr inbounds i8, ptr %7, i64 -4
  %8 = load i32, ptr %arrayidx10.i.i, align 4
  %inc.i.i = add i32 %8, 1
  store i32 %inc.i.i, ptr %arrayidx10.i.i, align 4
  ret void
}